target datalayout = "e-m:e-p270:32:32-p271:32:32-p272:64:64-i64:64-i128:128-f80:128-n8:16:32:64-S128"
target triple = "x86_64-unknown-linux-gnu"

%class.svector = type { %class.vector.0 }
%class.vector.0 = type { ptr }
%class.ptr_vector = type { %class.vector }
%class.vector = type { ptr }
%"class.smt::theory" = type <{ ptr, i32, [4 x i8], ptr, ptr, %class.ptr_vector, %class.svector, i32, i8, [3 x i8] }>

@.str.11 = private unnamed_addr constant [18 x i8] c"Theory datatype:\0A\00", align 1

; Function Attrs: mustprogress nounwind uwtable
define linkonce_odr hidden noundef i32 @_ZNK6vectorIPN3smt5enodeELb0EjE4sizeEv(ptr noundef nonnull align 8 dereferenceable(8) %this) #4 comdat align 2 {
entry:
  %retval = alloca i32, align 4
  %this.addr = alloca ptr, align 8
  store ptr %this, ptr %this.addr, align 8
  %this1 = load ptr, ptr %this.addr, align 8
  %m_data = getelementptr inbounds %class.vector, ptr %this1, i32 0, i32 0
  %0 = load ptr, ptr %m_data, align 8
  %cmp = icmp eq ptr %0, null
  br i1 %cmp, label %if.then, label %if.end

if.then:                                          ; preds = %entry
  store i32 0, ptr %retval, align 4
  br label %return

if.end:                                           ; preds = %entry
  %m_data2 = getelementptr inbounds %class.vector, ptr %this1, i32 0, i32 0
  %1 = load ptr, ptr %m_data2, align 8
  %arrayidx = getelementptr inbounds i32, ptr %1, i64 -1
  %2 = load i32, ptr %arrayidx, align 4
  store i32 %2, ptr %retval, align 4
  br label %return

return:                                           ; preds = %if.end, %if.then
  %3 = load i32, ptr %retval, align 4
  ret i32 %3
}

; Function Attrs: mustprogress uwtable
define linkonce_odr hidden noundef i32 @_ZNK3smt6theory12get_num_varsEv(ptr noundef nonnull align 8 dereferenceable(53) %this) #5 comdat align 2 {
entry:
  %this.addr = alloca ptr, align 8
  store ptr %this, ptr %this.addr, align 8
  %this1 = load ptr, ptr %this.addr, align 8
  %m_var2enode = getelementptr inbounds %"class.smt::theory", ptr %this1, i32 0, i32 5
  %call = call noundef i32 @_ZNK6vectorIPN3smt5enodeELb0EjE4sizeEv(ptr noundef nonnull align 8 dereferenceable(8) %m_var2enode)
  ret i32 %call
}

; Function Attrs: mustprogress uwtable
define hidden void @_ZNK3smt15theory_datatype7displayERSo(ptr noundef nonnull align 8 dereferenceable(728) %this, ptr noundef nonnull align 8 dereferenceable(8) %out) unnamed_addr #5 align 2 {
entry:
  %this.addr = alloca ptr, align 8
  %out.addr = alloca ptr, align 8
  %num_vars = alloca i32, align 4
  %v = alloca i32, align 4
  store ptr %this, ptr %this.addr, align 8
  store ptr %out, ptr %out.addr, align 8
  %this1 = load ptr, ptr %this.addr, align 8
  %call = call noundef i32 @_ZNK3smt6theory12get_num_varsEv(ptr noundef nonnull align 8 dereferenceable(53) %this1)
  store i32 %call, ptr %num_vars, align 4
  %0 = load i32, ptr %num_vars, align 4
  %cmp = icmp eq i32 %0, 0
  br i1 %cmp, label %if.then, label %if.end

if.then:                                          ; preds = %entry
  br label %for.end

if.end:                                           ; preds = %entry
  %1 = load ptr, ptr %out.addr, align 8
  %call2 = call noundef nonnull align 8 dereferenceable(8) ptr @_ZStlsISt11char_traitsIcEERSt13basic_ostreamIcT_ES5_PKc(ptr noundef nonnull align 8 dereferenceable(8) %1, ptr noundef @.str.11)
  store i32 0, ptr %v, align 4
  br label %for.cond

for.cond:                                         ; preds = %for.inc, %if.end
  %2 = load i32, ptr %v, align 4
  %3 = load i32, ptr %num_vars, align 4
  %cmp3 = icmp ult i32 %2, %3
  br i1 %cmp3, label %for.body, label %for.end

for.body:                                         ; preds = %for.cond
  %4 = load ptr, ptr %out.addr, align 8
  %5 = load i32, ptr %v, align 4
  call void @_ZNK3smt15theory_datatype11display_varERSoi(ptr noundef nonnull align 8 dereferenceable(728) %this1, ptr noundef nonnull align 8 dereferenceable(8) %4, i32 noundef %5)
  br label %for.inc

for.inc:                                          ; preds = %for.body
  %6 = load i32, ptr %v, align 4
  %inc = add i32 %6, 1
  store i32 %inc, ptr %v, align 4
  br label %for.cond, !llvm.loop !16

for.end:                                          ; preds = %for.cond, %if.then
  ret void
}