; Function Attrs: mustprogress uwtable
define hidden void @_ZNK3smt15theory_datatype7displayERSo(ptr nocapture noundef nonnull readonly align 8 dereferenceable(728) %this, ptr noundef nonnull align 8 dereferenceable(8) %out) unnamed_addr #3 align 2 {
entry:
  %m_var2enode.i = getelementptr inbounds i8, ptr %this, i64 32
  %0 = load ptr, ptr %m_var2enode.i, align 8
  %cmp.i.i = icmp eq ptr %0, null
  br i1 %cmp.i.i, label %for.end, label %_ZNK3smt6theory12get_num_varsEv.exit

_ZNK3smt6theory12get_num_varsEv.exit:             ; preds = %entry
  %arrayidx.i.i = getelementptr inbounds i8, ptr %0, i64 -4
  %1 = load i32, ptr %arrayidx.i.i, align 4
  %cmp = icmp eq i32 %1, 0
  br i1 %cmp, label %for.end, label %if.end

if.end:                                           ; preds = %_ZNK3smt6theory12get_num_varsEv.exit
  %call2 = tail call noundef nonnull align 8 dereferenceable(8) ptr @_ZStlsISt11char_traitsIcEERSt13basic_ostreamIcT_ES5_PKc(ptr noundef nonnull align 8 dereferenceable(8) %out, ptr noundef nonnull @.str.11)
  br label %for.body

for.body:                                         ; preds = %if.end, %for.body
  %v.07 = phi i32 [ 0, %if.end ], [ %inc, %for.body ]
  tail call void @_ZNK3smt15theory_datatype11display_varERSoi(ptr noundef nonnull align 8 dereferenceable(728) %this, ptr noundef nonnull align 8 dereferenceable(8) %out, i32 noundef %v.07)
  %inc = add nuw i32 %v.07, 1
  %exitcond.not = icmp eq i32 %inc, %1
  br i1 %exitcond.not, label %for.end, label %for.body, !llvm.loop !39

for.end:                                          ; preds = %for.body, %entry, %_ZNK3smt6theory12get_num_varsEv.exit
  ret void
}